target datalayout = "e-m:e-p270:32:32-p271:32:32-p272:64:64-i64:64-i128:128-f80:128-n8:16:32:64-S128"
target triple = "x86_64-pc-linux-gnu"

%struct.evp_pkey_asn1_method_st = type { i32, i32, i64, ptr, ptr, ptr, ptr, ptr, ptr, ptr, ptr, ptr, ptr, ptr, ptr, ptr, ptr, ptr, ptr, ptr, ptr, ptr, ptr, ptr, ptr, ptr, ptr, ptr, ptr, ptr, ptr, ptr, ptr, ptr, ptr, ptr, ptr, ptr, ptr, ptr, ptr }
%struct.evp_pkey_st = type { i32, i32, ptr, ptr, ptr, %union.legacy_pkey_st, %union.legacy_pkey_st, %struct.CRYPTO_REF_COUNT, ptr, ptr, i32, i8, %struct.crypto_ex_data_st, ptr, ptr, i64, ptr, i64, %struct.anon }
%union.legacy_pkey_st = type { ptr }
%struct.CRYPTO_REF_COUNT = type { i32 }
%struct.crypto_ex_data_st = type { ptr, ptr }
%struct.anon = type { i32, i32, i32 }
%struct.ecx_key_st = type { ptr, ptr, i8, [57 x i8], ptr, i64, i32, %struct.CRYPTO_REF_COUNT }
%struct.asn1_string_st = type { i32, i32, ptr, i64 }

@.str.8 = private unnamed_addr constant [32 x i8] c"../openssl/crypto/ec/ecx_meth.c\00", align 1
@__func__.ecx_priv_encode = private unnamed_addr constant [16 x i8] c"ecx_priv_encode\00", align 1

; Function Attrs: nounwind uwtable
define internal i32 @ecx_priv_encode(ptr noundef %0, ptr noundef %1) #0 {
  %3 = alloca i32, align 4
  %4 = alloca ptr, align 8
  %5 = alloca ptr, align 8
  %6 = alloca ptr, align 8
  %7 = alloca %struct.asn1_string_st, align 8
  %8 = alloca ptr, align 8
  %9 = alloca i32, align 4
  %10 = alloca i32, align 4
  store ptr %0, ptr %4, align 8, !tbaa !38
  store ptr %1, ptr %5, align 8, !tbaa !3
  call void @llvm.lifetime.start.p0(i64 8, ptr %6) #4
  %11 = load ptr, ptr %5, align 8, !tbaa !3
  %12 = getelementptr inbounds nuw %struct.evp_pkey_st, ptr %11, i32 0, i32 5
  %13 = load ptr, ptr %12, align 8, !tbaa !33
  store ptr %13, ptr %6, align 8, !tbaa !31
  call void @llvm.lifetime.start.p0(i64 24, ptr %7) #4
  call void @llvm.lifetime.start.p0(i64 8, ptr %8) #4
  store ptr null, ptr %8, align 8, !tbaa !14
  call void @llvm.lifetime.start.p0(i64 4, ptr %9) #4
  %14 = load ptr, ptr %6, align 8, !tbaa !31
  %15 = icmp eq ptr %14, null
  br i1 %15, label %21, label %16

16:                                               ; preds = %2
  %17 = load ptr, ptr %6, align 8, !tbaa !31
  %18 = getelementptr inbounds nuw %struct.ecx_key_st, ptr %17, i32 0, i32 4
  %19 = load ptr, ptr %18, align 8, !tbaa !40
  %20 = icmp eq ptr %19, null
  br i1 %20, label %21, label %22

21:                                               ; preds = %16, %2
  call void @ERR_new()
  call void @ERR_set_debug(ptr noundef @.str.8, i32 noundef 106, ptr noundef @__func__.ecx_priv_encode)
  call void (i32, i32, ptr, ...) @ERR_set_error(i32 noundef 16, i32 noundef 123, ptr noundef null)
  store i32 0, ptr %3, align 4
  store i32 1, ptr %10, align 4
  br label %74

22:                                               ; preds = %16
  %23 = load ptr, ptr %6, align 8, !tbaa !31
  %24 = getelementptr inbounds nuw %struct.ecx_key_st, ptr %23, i32 0, i32 4
  %25 = load ptr, ptr %24, align 8, !tbaa !40
  %26 = getelementptr inbounds nuw %struct.asn1_string_st, ptr %7, i32 0, i32 2
  store ptr %25, ptr %26, align 8, !tbaa !42
  %27 = load ptr, ptr %5, align 8, !tbaa !3
  %28 = getelementptr inbounds nuw %struct.evp_pkey_st, ptr %27, i32 0, i32 2
  %29 = load ptr, ptr %28, align 8, !tbaa !16
  %30 = getelementptr inbounds nuw %struct.evp_pkey_asn1_method_st, ptr %29, i32 0, i32 0
  %31 = load i32, ptr %30, align 8, !tbaa !29
  %32 = icmp eq i32 %31, 1034
  br i1 %32, label %40, label %33

33:                                               ; preds = %22
  %34 = load ptr, ptr %5, align 8, !tbaa !3
  %35 = getelementptr inbounds nuw %struct.evp_pkey_st, ptr %34, i32 0, i32 2
  %36 = load ptr, ptr %35, align 8, !tbaa !16
  %37 = getelementptr inbounds nuw %struct.evp_pkey_asn1_method_st, ptr %36, i32 0, i32 0
  %38 = load i32, ptr %37, align 8, !tbaa !29
  %39 = icmp eq i32 %38, 1087
  br i1 %39, label %40, label %41

40:                                               ; preds = %33, %22
  br label %49

41:                                               ; preds = %33
  %42 = load ptr, ptr %5, align 8, !tbaa !3
  %43 = getelementptr inbounds nuw %struct.evp_pkey_st, ptr %42, i32 0, i32 2
  %44 = load ptr, ptr %43, align 8, !tbaa !16
  %45 = getelementptr inbounds nuw %struct.evp_pkey_asn1_method_st, ptr %44, i32 0, i32 0
  %46 = load i32, ptr %45, align 8, !tbaa !29
  %47 = icmp eq i32 %46, 1035
  %48 = select i1 %47, i32 56, i32 57
  br label %49

49:                                               ; preds = %41, %40
  %50 = phi i32 [ 32, %40 ], [ %48, %41 ]
  %51 = getelementptr inbounds nuw %struct.asn1_string_st, ptr %7, i32 0, i32 0
  store i32 %50, ptr %51, align 8, !tbaa !44
  %52 = getelementptr inbounds nuw %struct.asn1_string_st, ptr %7, i32 0, i32 3
  store i64 0, ptr %52, align 8, !tbaa !45
  %53 = call i32 @i2d_ASN1_OCTET_STRING(ptr noundef %7, ptr noundef %8)
  store i32 %53, ptr %9, align 4, !tbaa !10
  %54 = load i32, ptr %9, align 4, !tbaa !10
  %55 = icmp slt i32 %54, 0
  br i1 %55, label %56, label %57

56:                                               ; preds = %49
  call void @ERR_new()
  call void @ERR_set_debug(ptr noundef @.str.8, i32 noundef 116, ptr noundef @__func__.ecx_priv_encode)
  call void (i32, i32, ptr, ...) @ERR_set_error(i32 noundef 16, i32 noundef 524301, ptr noundef null)
  store i32 0, ptr %3, align 4
  store i32 1, ptr %10, align 4
  br label %74

57:                                               ; preds = %49
  %58 = load ptr, ptr %4, align 8, !tbaa !38
  %59 = load ptr, ptr %5, align 8, !tbaa !3
  %60 = getelementptr inbounds nuw %struct.evp_pkey_st, ptr %59, i32 0, i32 2
  %61 = load ptr, ptr %60, align 8, !tbaa !16
  %62 = getelementptr inbounds nuw %struct.evp_pkey_asn1_method_st, ptr %61, i32 0, i32 0
  %63 = load i32, ptr %62, align 8, !tbaa !29
  %64 = call ptr @OBJ_nid2obj(i32 noundef %63)
  %65 = load ptr, ptr %8, align 8, !tbaa !14
  %66 = load i32, ptr %9, align 4, !tbaa !10
  %67 = call i32 @PKCS8_pkey_set0(ptr noundef %58, ptr noundef %64, i32 noundef 0, i32 noundef -1, ptr noundef null, ptr noundef %65, i32 noundef %66)
  %68 = icmp ne i32 %67, 0
  br i1 %68, label %73, label %69

69:                                               ; preds = %57
  %70 = load ptr, ptr %8, align 8, !tbaa !14
  %71 = load i32, ptr %9, align 4, !tbaa !10
  %72 = sext i32 %71 to i64
  call void @CRYPTO_clear_free(ptr noundef %70, i64 noundef %72, ptr noundef @.str.8, i32 noundef 122)
  call void @ERR_new()
  call void @ERR_set_debug(ptr noundef @.str.8, i32 noundef 123, ptr noundef @__func__.ecx_priv_encode)
  call void (i32, i32, ptr, ...) @ERR_set_error(i32 noundef 16, i32 noundef 524301, ptr noundef null)
  store i32 0, ptr %3, align 4
  store i32 1, ptr %10, align 4
  br label %74

73:                                               ; preds = %57
  store i32 1, ptr %3, align 4
  store i32 1, ptr %10, align 4
  br label %74

74:                                               ; preds = %73, %69, %56, %21
  call void @llvm.lifetime.end.p0(i64 4, ptr %9) #4
  call void @llvm.lifetime.end.p0(i64 8, ptr %8) #4
  call void @llvm.lifetime.end.p0(i64 24, ptr %7) #4
  call void @llvm.lifetime.end.p0(i64 8, ptr %6) #4
  %75 = load i32, ptr %3, align 4
  ret i32 %75
}