; Function Attrs: nounwind uwtable
define internal range(i32 0, 2) i32 @ecx_priv_encode(ptr noundef %0, ptr noundef readonly captures(none) %1) #0 {
  %3 = alloca %struct.asn1_string_st, align 8
  %4 = alloca ptr, align 8
  %5 = getelementptr inbounds nuw i8, ptr %1, i64 32
  %6 = load ptr, ptr %5, align 8, !tbaa !27
  call void @llvm.lifetime.start.p0(i64 24, ptr nonnull %3) #8
  call void @llvm.lifetime.start.p0(i64 8, ptr nonnull %4) #8
  store ptr null, ptr %4, align 8, !tbaa !8
  %7 = icmp eq ptr %6, null
  br i1 %7, label %12, label %8

8:                                                ; preds = %2
  %9 = getelementptr inbounds nuw i8, ptr %6, i64 80
  %10 = load ptr, ptr %9, align 8, !tbaa !28
  %11 = icmp eq ptr %10, null
  br i1 %11, label %12, label %13

12:                                               ; preds = %8, %2
  tail call void @ERR_new() #8
  tail call void @ERR_set_debug(ptr noundef nonnull @.str.8, i32 noundef 106, ptr noundef nonnull @__func__.ecx_priv_encode) #8
  tail call void (i32, i32, ptr, ...) @ERR_set_error(i32 noundef 16, i32 noundef 123, ptr noundef null) #8
  br label %36

13:                                               ; preds = %8
  %14 = getelementptr inbounds nuw i8, ptr %3, i64 8
  store ptr %10, ptr %14, align 8, !tbaa !30
  %15 = getelementptr inbounds nuw i8, ptr %1, i64 8
  %16 = load ptr, ptr %15, align 8, !tbaa !12
  %17 = load i32, ptr %16, align 8, !tbaa !25
  switch i32 %17, label %18 [
    i32 1034, label %21
    i32 1087, label %21
  ]

18:                                               ; preds = %13
  %19 = icmp eq i32 %17, 1035
  %20 = select i1 %19, i32 56, i32 57
  br label %21

21:                                               ; preds = %13, %13, %18
  %22 = phi i32 [ %20, %18 ], [ 32, %13 ], [ 32, %13 ]
  store i32 %22, ptr %3, align 8, !tbaa !32
  %23 = getelementptr inbounds nuw i8, ptr %3, i64 16
  store i64 0, ptr %23, align 8, !tbaa !33
  %24 = call i32 @i2d_ASN1_OCTET_STRING(ptr noundef nonnull %3, ptr noundef nonnull %4) #8
  %25 = icmp slt i32 %24, 0
  br i1 %25, label %26, label %27

26:                                               ; preds = %21
  call void @ERR_new() #8
  call void @ERR_set_debug(ptr noundef nonnull @.str.8, i32 noundef 116, ptr noundef nonnull @__func__.ecx_priv_encode) #8
  call void (i32, i32, ptr, ...) @ERR_set_error(i32 noundef 16, i32 noundef 524301, ptr noundef null) #8
  br label %36

27:                                               ; preds = %21
  %28 = load ptr, ptr %15, align 8, !tbaa !12
  %29 = load i32, ptr %28, align 8, !tbaa !25
  %30 = call ptr @OBJ_nid2obj(i32 noundef %29) #8
  %31 = load ptr, ptr %4, align 8, !tbaa !8
  %32 = call i32 @PKCS8_pkey_set0(ptr noundef %0, ptr noundef %30, i32 noundef 0, i32 noundef -1, ptr noundef null, ptr noundef %31, i32 noundef %24) #8
  %.not = icmp eq i32 %32, 0
  br i1 %.not, label %33, label %36

33:                                               ; preds = %27
  %34 = load ptr, ptr %4, align 8, !tbaa !8
  %35 = zext nneg i32 %24 to i64
  call void @CRYPTO_clear_free(ptr noundef %34, i64 noundef %35, ptr noundef nonnull @.str.8, i32 noundef 122) #8
  call void @ERR_new() #8
  call void @ERR_set_debug(ptr noundef nonnull @.str.8, i32 noundef 123, ptr noundef nonnull @__func__.ecx_priv_encode) #8
  call void (i32, i32, ptr, ...) @ERR_set_error(i32 noundef 16, i32 noundef 524301, ptr noundef null) #8
  br label %36

36:                                               ; preds = %27, %33, %26, %12
  %.0 = phi i32 [ 0, %12 ], [ 0, %26 ], [ 0, %33 ], [ 1, %27 ]
  call void @llvm.lifetime.end.p0(i64 8, ptr nonnull %4) #8
  call void @llvm.lifetime.end.p0(i64 24, ptr nonnull %3) #8
  ret i32 %.0
}